; Function Attrs: mustprogress nofree norecurse nosync nounwind willreturn memory(argmem: readwrite) uwtable
define void @ucnv_getInvalidChars_77(ptr noundef readonly %0, ptr noundef writeonly %1, ptr noundef %2, ptr noundef %3) local_unnamed_addr #7 {
  %5 = icmp eq ptr %3, null
  br i1 %5, label %25, label %6

6:                                                ; preds = %4
  %7 = load i32, ptr %3, align 4, !tbaa !3
  %8 = icmp slt i32 %7, 1
  br i1 %8, label %9, label %25

9:                                                ; preds = %6
  %10 = icmp eq ptr %2, null
  %11 = icmp eq ptr %1, null
  %or.cond = or i1 %11, %10
  %12 = icmp eq ptr %0, null
  %or.cond3 = or i1 %12, %or.cond
  br i1 %or.cond3, label %13, label %14

13:                                               ; preds = %9
  store i32 1, ptr %3, align 4, !tbaa !3
  br label %25

14:                                               ; preds = %9
  %15 = load i8, ptr %2, align 1, !tbaa !7
  %16 = getelementptr inbounds nuw i8, ptr %0, i64 90
  %17 = load i8, ptr %16, align 2, !tbaa !68
  %18 = icmp slt i8 %15, %17
  br i1 %18, label %19, label %20

19:                                               ; preds = %14
  store i32 8, ptr %3, align 4, !tbaa !3
  br label %25

20:                                               ; preds = %14
  store i8 %17, ptr %2, align 1, !tbaa !7
  %21 = icmp sgt i8 %17, 0
  br i1 %21, label %22, label %25

22:                                               ; preds = %20
  %23 = getelementptr inbounds nuw i8, ptr %0, i64 96
  %24 = zext nneg i8 %17 to i64
  tail call void @llvm.memcpy.p0.p0.i64(ptr nonnull align 1 %1, ptr nonnull align 8 %23, i64 %24, i1 false)
  br label %25

25:                                               ; preds = %4, %6, %22, %20, %19, %13
  ret void
}